target datalayout = "e-m:e-p270:32:32-p271:32:32-p272:64:64-i64:64-i128:128-f80:128-n8:16:32:64-S128"
target triple = "x86_64-pc-linux-gnu"

%struct.VP8LBitReader = type { i64, ptr, i64, i64, i32, i32 }

; Function Attrs: nounwind uwtable
define internal i32 @VP8LIsEndOfStream(ptr noundef %0) #0 {
  %2 = alloca ptr, align 8
  store ptr %0, ptr %2, align 8
  %3 = load ptr, ptr %2, align 8
  %4 = getelementptr inbounds %struct.VP8LBitReader, ptr %3, i32 0, i32 5
  %5 = load i32, ptr %4, align 4
  %6 = icmp ne i32 %5, 0
  br i1 %6, label %22, label %7

7:                                                ; preds = %1
  %8 = load ptr, ptr %2, align 8
  %9 = getelementptr inbounds %struct.VP8LBitReader, ptr %8, i32 0, i32 3
  %10 = load i64, ptr %9, align 8
  %11 = load ptr, ptr %2, align 8
  %12 = getelementptr inbounds %struct.VP8LBitReader, ptr %11, i32 0, i32 2
  %13 = load i64, ptr %12, align 8
  %14 = icmp eq i64 %10, %13
  br i1 %14, label %15, label %20

15:                                               ; preds = %7
  %16 = load ptr, ptr %2, align 8
  %17 = getelementptr inbounds %struct.VP8LBitReader, ptr %16, i32 0, i32 4
  %18 = load i32, ptr %17, align 8
  %19 = icmp sgt i32 %18, 64
  br label %20

20:                                               ; preds = %15, %7
  %21 = phi i1 [ false, %7 ], [ %19, %15 ]
  br label %22

22:                                               ; preds = %20, %1
  %23 = phi i1 [ true, %1 ], [ %21, %20 ]
  %24 = zext i1 %23 to i32
  ret i32 %24
}

; Function Attrs: nounwind uwtable
define hidden void @VP8LBitReaderSetBuffer(ptr noundef %0, ptr noundef %1, i64 noundef %2) #0 {
  %4 = alloca ptr, align 8
  %5 = alloca ptr, align 8
  %6 = alloca i64, align 8
  store ptr %0, ptr %4, align 8
  store ptr %1, ptr %5, align 8
  store i64 %2, ptr %6, align 8
  %7 = load ptr, ptr %5, align 8
  %8 = load ptr, ptr %4, align 8
  %9 = getelementptr inbounds %struct.VP8LBitReader, ptr %8, i32 0, i32 1
  store ptr %7, ptr %9, align 8
  %10 = load i64, ptr %6, align 8
  %11 = load ptr, ptr %4, align 8
  %12 = getelementptr inbounds %struct.VP8LBitReader, ptr %11, i32 0, i32 2
  store i64 %10, ptr %12, align 8
  %13 = load ptr, ptr %4, align 8
  %14 = getelementptr inbounds %struct.VP8LBitReader, ptr %13, i32 0, i32 3
  %15 = load i64, ptr %14, align 8
  %16 = load ptr, ptr %4, align 8
  %17 = getelementptr inbounds %struct.VP8LBitReader, ptr %16, i32 0, i32 2
  %18 = load i64, ptr %17, align 8
  %19 = icmp ugt i64 %15, %18
  br i1 %19, label %24, label %20

20:                                               ; preds = %3
  %21 = load ptr, ptr %4, align 8
  %22 = call i32 @VP8LIsEndOfStream(ptr noundef %21)
  %23 = icmp ne i32 %22, 0
  br label %24

24:                                               ; preds = %20, %3
  %25 = phi i1 [ true, %3 ], [ %23, %20 ]
  %26 = zext i1 %25 to i32
  %27 = load ptr, ptr %4, align 8
  %28 = getelementptr inbounds %struct.VP8LBitReader, ptr %27, i32 0, i32 5
  store i32 %26, ptr %28, align 4
  ret void
}