; Function Attrs: mustprogress nofree norecurse nosync nounwind willreturn memory(argmem: readwrite) uwtable
define hidden void @VP8LBitReaderSetBuffer(ptr nocapture noundef %0, ptr noundef %1, i64 noundef %2) local_unnamed_addr #2 {
  %4 = getelementptr inbounds i8, ptr %0, i64 8
  store ptr %1, ptr %4, align 8
  %5 = getelementptr inbounds i8, ptr %0, i64 16
  store i64 %2, ptr %5, align 8
  %6 = getelementptr inbounds i8, ptr %0, i64 24
  %7 = load i64, ptr %6, align 8
  %8 = icmp ugt i64 %7, %2
  br i1 %8, label %VP8LIsEndOfStream.exit, label %9

9:                                                ; preds = %3
  %10 = getelementptr inbounds i8, ptr %0, i64 36
  %11 = load i32, ptr %10, align 4
  %.not.i = icmp eq i32 %11, 0
  br i1 %.not.i, label %12, label %VP8LIsEndOfStream.exit

12:                                               ; preds = %9
  %13 = icmp eq i64 %7, %2
  br i1 %13, label %14, label %VP8LIsEndOfStream.exit

14:                                               ; preds = %12
  %15 = getelementptr inbounds i8, ptr %0, i64 32
  %16 = load i32, ptr %15, align 8
  %17 = icmp sgt i32 %16, 64
  %18 = zext i1 %17 to i32
  br label %VP8LIsEndOfStream.exit

VP8LIsEndOfStream.exit:                           ; preds = %14, %12, %9, %3
  %19 = phi i32 [ 1, %3 ], [ 1, %9 ], [ 0, %12 ], [ %18, %14 ]
  %20 = getelementptr inbounds i8, ptr %0, i64 36
  store i32 %19, ptr %20, align 4
  ret void
}